; Function Attrs: mustprogress uwtable
define noundef double @_ZNK8QuantLib18LmCorrelationModel11correlationEmmdRKNS_5ArrayE(ptr noundef nonnull align 8 dereferenceable(40) %this, i64 noundef %i, i64 noundef %j, double noundef %t, ptr noundef nonnull align 8 dereferenceable(16) %x) unnamed_addr #4 align 2 personality ptr @__gxx_personality_v0 {
_ZN8QuantLib6MatrixD2Ev.exit:
  %ref.tmp = alloca %"class.QuantLib::Matrix", align 8
  call void @llvm.lifetime.start.p0(i64 24, ptr nonnull %ref.tmp) #16
  %vtable = load ptr, ptr %this, align 8, !tbaa !3
  %vfn = getelementptr inbounds i8, ptr %vtable, i64 32
  %0 = load ptr, ptr %vfn, align 8
  call void %0(ptr dead_on_unwind nonnull writable sret(%"class.QuantLib::Matrix") align 8 %ref.tmp, ptr noundef nonnull align 8 dereferenceable(40) %this, double noundef %t, ptr noundef nonnull align 8 dereferenceable(16) %x)
  %1 = load ptr, ptr %ref.tmp, align 8, !tbaa !18
  %columns_.i.i = getelementptr inbounds nuw i8, ptr %ref.tmp, i64 16
  %2 = load i64, ptr %columns_.i.i, align 8, !tbaa !19
  %mul.i.i = mul i64 %2, %i
  %add.ptr.i.i = getelementptr inbounds nuw double, ptr %1, i64 %mul.i.i
  %arrayidx = getelementptr inbounds nuw double, ptr %add.ptr.i.i, i64 %j
  %3 = load double, ptr %arrayidx, align 8, !tbaa !27
  call void @_ZdaPv(ptr noundef nonnull %1) #20
  call void @llvm.lifetime.end.p0(i64 24, ptr nonnull %ref.tmp) #16
  ret double %3
}